target datalayout = "e-m:e-p270:32:32-p271:32:32-p272:64:64-i64:64-i128:128-f80:128-n8:16:32:64-S128"
target triple = "x86_64-pc-linux-gnu"

@.str.297 = private unnamed_addr constant [16 x i8] c"$$test-filename\00", align 1
@.str.299 = private unnamed_addr constant [4 x i8] c"_io\00", align 1
@.str.302 = private unnamed_addr constant [5 x i8] c"open\00", align 1
@.str.303 = private unnamed_addr constant [3 x i8] c"Os\00", align 1
@.str.304 = private unnamed_addr constant [3 x i8] c"rb\00", align 1

; Function Attrs: nounwind uwtable
define internal ptr @_open_code_hook(ptr noundef %0, ptr noundef %1) #0 {
  %3 = alloca ptr, align 8
  %4 = alloca ptr, align 8
  %5 = alloca ptr, align 8
  %6 = alloca ptr, align 8
  %7 = alloca i32, align 4
  store ptr %0, ptr %4, align 8, !tbaa !80
  store ptr %1, ptr %5, align 8, !tbaa !38
  %8 = load ptr, ptr %4, align 8, !tbaa !80
  %9 = call i32 @PyUnicode_CompareWithASCIIString(ptr noundef %8, ptr noundef @.str.297)
  %10 = icmp eq i32 %9, 0
  br i1 %10, label %11, label %14

11:                                               ; preds = %2
  %12 = load ptr, ptr %5, align 8, !tbaa !38
  %13 = call ptr @PyLong_FromVoidPtr(ptr noundef %12)
  store ptr %13, ptr %3, align 8
  br label %24

14:                                               ; preds = %2
  call void @llvm.lifetime.start.p0(i64 8, ptr %6) #11
  %15 = call ptr @PyImport_ImportModule(ptr noundef @.str.299)
  store ptr %15, ptr %6, align 8, !tbaa !80
  %16 = load ptr, ptr %6, align 8, !tbaa !80
  %17 = icmp ne ptr %16, null
  br i1 %17, label %19, label %18

18:                                               ; preds = %14
  store ptr null, ptr %3, align 8
  store i32 1, ptr %7, align 4
  br label %23

19:                                               ; preds = %14
  %20 = load ptr, ptr %6, align 8, !tbaa !80
  %21 = load ptr, ptr %4, align 8, !tbaa !80
  %22 = call ptr (ptr, ptr, ptr, ...) @PyObject_CallMethod(ptr noundef %20, ptr noundef @.str.302, ptr noundef @.str.303, ptr noundef %21, ptr noundef @.str.304)
  store ptr %22, ptr %3, align 8
  store i32 1, ptr %7, align 4
  br label %23

23:                                               ; preds = %19, %18
  call void @llvm.lifetime.end.p0(i64 8, ptr %6) #11
  br label %24

24:                                               ; preds = %23, %11
  %25 = load ptr, ptr %3, align 8
  ret ptr %25
}