; Function Attrs: nounwind uwtable
define internal ptr @_open_code_hook(ptr noundef %0, ptr noundef %1) #0 {
  %3 = tail call i32 @PyUnicode_CompareWithASCIIString(ptr noundef %0, ptr noundef nonnull @.str.297) #20
  %4 = icmp eq i32 %3, 0
  br i1 %4, label %5, label %7

5:                                                ; preds = %2
  %6 = tail call ptr @PyLong_FromVoidPtr(ptr noundef %1) #20
  br label %11

7:                                                ; preds = %2
  %8 = tail call ptr @PyImport_ImportModule(ptr noundef nonnull @.str.299) #20
  %.not = icmp eq ptr %8, null
  br i1 %.not, label %11, label %9

9:                                                ; preds = %7
  %10 = tail call ptr (ptr, ptr, ptr, ...) @PyObject_CallMethod(ptr noundef nonnull %8, ptr noundef nonnull @.str.302, ptr noundef nonnull @.str.303, ptr noundef %0, ptr noundef nonnull @.str.304) #20
  br label %11

11:                                               ; preds = %9, %7, %5
  %.0 = phi ptr [ %6, %5 ], [ %10, %9 ], [ null, %7 ]
  ret ptr %.0
}